
main.elf:     file format elf32-littleriscv


Disassembly of section .text:

00000000 <_isr_handler>:
   0:	0080006f          	j	8 <_isr_routine>
   4:	1440006f          	j	148 <_start>

00000008 <_isr_routine>:
   8:	f8010113          	addi	sp,sp,-128
   c:	00112023          	sw	ra,0(sp)
  10:	00312423          	sw	gp,8(sp)
  14:	00412623          	sw	tp,12(sp)
  18:	00512823          	sw	t0,16(sp)
  1c:	00612a23          	sw	t1,20(sp)
  20:	00712c23          	sw	t2,24(sp)
  24:	00812e23          	sw	s0,28(sp)
  28:	02912023          	sw	s1,32(sp)
  2c:	02a12223          	sw	a0,36(sp)
  30:	02b12423          	sw	a1,40(sp)
  34:	02c12623          	sw	a2,44(sp)
  38:	02d12823          	sw	a3,48(sp)
  3c:	02e12a23          	sw	a4,52(sp)
  40:	02f12c23          	sw	a5,56(sp)
  44:	03012e23          	sw	a6,60(sp)
  48:	05112023          	sw	a7,64(sp)
  4c:	05212223          	sw	s2,68(sp)
  50:	05312423          	sw	s3,72(sp)
  54:	05412623          	sw	s4,76(sp)
  58:	05512823          	sw	s5,80(sp)
  5c:	05612a23          	sw	s6,84(sp)
  60:	05712c23          	sw	s7,88(sp)
  64:	05812e23          	sw	s8,92(sp)
  68:	07912023          	sw	s9,96(sp)
  6c:	07a12223          	sw	s10,100(sp)
  70:	07b12423          	sw	s11,104(sp)
  74:	07c12623          	sw	t3,108(sp)
  78:	07d12823          	sw	t4,112(sp)
  7c:	07e12a23          	sw	t5,116(sp)
  80:	07f12c23          	sw	t6,120(sp)
  84:	342022f3          	csrr	t0,mcause
  88:	80000337          	lui	t1,0x80000
  8c:	02536463          	bltu	t1,t0,b4 <external_irq>
  90:	00028833          	add	a6,t0,zero
  94:	00b00313          	li	t1,11
  98:	00628463          	beq	t0,t1,a0 <skip_init_args>
  9c:	34102573          	csrr	a0,mepc

000000a0 <skip_init_args>:
  a0:	574000ef          	jal	614 <handle_exception>
  a4:	341022f3          	csrr	t0,mepc
  a8:	00428293          	addi	t0,t0,4
  ac:	34129073          	csrw	mepc,t0
  b0:	0180006f          	j	c8 <restore>

000000b4 <external_irq>:
  b4:	800002b7          	lui	t0,0x80000
  b8:	fff28293          	addi	t0,t0,-1 # 7fffffff <_stack_end+0x7feff2c3>
  bc:	34202373          	csrr	t1,mcause
  c0:	0062f533          	and	a0,t0,t1
  c4:	06d000ef          	jal	930 <handle_interrupt>

000000c8 <restore>:
  c8:	00012083          	lw	ra,0(sp)
  cc:	00812183          	lw	gp,8(sp)
  d0:	00c12203          	lw	tp,12(sp)
  d4:	01012283          	lw	t0,16(sp)
  d8:	01412303          	lw	t1,20(sp)
  dc:	01812383          	lw	t2,24(sp)
  e0:	01c12403          	lw	s0,28(sp)
  e4:	02012483          	lw	s1,32(sp)
  e8:	02412503          	lw	a0,36(sp)
  ec:	02812583          	lw	a1,40(sp)
  f0:	02c12603          	lw	a2,44(sp)
  f4:	03012683          	lw	a3,48(sp)
  f8:	03412703          	lw	a4,52(sp)
  fc:	03812783          	lw	a5,56(sp)
 100:	03c12803          	lw	a6,60(sp)
 104:	04012883          	lw	a7,64(sp)
 108:	04412903          	lw	s2,68(sp)
 10c:	04812983          	lw	s3,72(sp)
 110:	04c12a03          	lw	s4,76(sp)
 114:	05012a83          	lw	s5,80(sp)
 118:	05412b03          	lw	s6,84(sp)
 11c:	05812b83          	lw	s7,88(sp)
 120:	05c12c03          	lw	s8,92(sp)
 124:	06012c83          	lw	s9,96(sp)
 128:	06412d03          	lw	s10,100(sp)
 12c:	06812d83          	lw	s11,104(sp)
 130:	06c12e03          	lw	t3,108(sp)
 134:	07012e83          	lw	t4,112(sp)
 138:	07412f03          	lw	t5,116(sp)
 13c:	07812f83          	lw	t6,120(sp)
 140:	08010113          	addi	sp,sp,128
 144:	30200073          	mret

00000148 <_start>:
 148:	30401073          	csrw	mie,zero
 14c:	00101117          	auipc	sp,0x101
 150:	bf010113          	addi	sp,sp,-1040 # 100d3c <_stack_end>
 154:	00001197          	auipc	gp,0x1
 158:	2dd18193          	addi	gp,gp,733 # 1431 <__global_pointer>
 15c:	00001517          	auipc	a0,0x1
 160:	9f850513          	addi	a0,a0,-1544 # b54 <welcome_msg>
 164:	00400893          	li	a7,4
 168:	00000073          	ecall
 16c:	161000ef          	jal	acc <main>

00000170 <loop>:
 170:	0000006f          	j	170 <loop>

00000174 <enable_interrupt>:
 174:	3001e073          	csrsi	mstatus,3
 178:	30486073          	csrsi	mie,16
 17c:	3048e073          	csrsi	mie,17
 180:	00008067          	ret

00000184 <display_string>:
 184:	00400893          	li	a7,4
 188:	00000073          	ecall
 18c:	00a00513          	li	a0,10
 190:	00b00893          	li	a7,11
 194:	00000073          	ecall
 198:	00008067          	ret

0000019c <timetemplate>:
 19c:	00001517          	auipc	a0,0x1
 1a0:	a5050513          	addi	a0,a0,-1456 # bec <timstr>
 1a4:	fe1ff0ef          	jal	184 <display_string>
 1a8:	00001537          	lui	a0,0x1
 1ac:	fa050513          	addi	a0,a0,-96 # fa0 <sev_seg_map.0+0x350>
 1b0:	12c000ef          	jal	2dc <delay>
 1b4:	00001517          	auipc	a0,0x1
 1b8:	a3450513          	addi	a0,a0,-1484 # be8 <mytime>
 1bc:	020000ef          	jal	1dc <tick>
 1c0:	00001517          	auipc	a0,0x1
 1c4:	a2c50513          	addi	a0,a0,-1492 # bec <timstr>
 1c8:	00001297          	auipc	t0,0x1
 1cc:	a2028293          	addi	t0,t0,-1504 # be8 <mytime>
 1d0:	0002a583          	lw	a1,0(t0)
 1d4:	080000ef          	jal	254 <time2string>
 1d8:	fc5ff06f          	j	19c <timetemplate>

000001dc <tick>:
 1dc:	00052283          	lw	t0,0(a0)
 1e0:	00128293          	addi	t0,t0,1
 1e4:	00f2f313          	andi	t1,t0,15
 1e8:	00a33393          	sltiu	t2,t1,10
 1ec:	06039063          	bnez	t2,24c <tiend>
 1f0:	00628293          	addi	t0,t0,6
 1f4:	0f02f313          	andi	t1,t0,240
 1f8:	06033393          	sltiu	t2,t1,96
 1fc:	04039863          	bnez	t2,24c <tiend>
 200:	0a028293          	addi	t0,t0,160
 204:	00f00e13          	li	t3,15
 208:	008e1e13          	slli	t3,t3,0x8
 20c:	01c2f333          	and	t1,t0,t3
 210:	00a00e13          	li	t3,10
 214:	008e1e13          	slli	t3,t3,0x8
 218:	01c323b3          	slt	t2,t1,t3
 21c:	02039863          	bnez	t2,24c <tiend>
 220:	60028293          	addi	t0,t0,1536
 224:	00f00e13          	li	t3,15
 228:	00ce1e13          	slli	t3,t3,0xc
 22c:	01c2f333          	and	t1,t0,t3
 230:	00600e13          	li	t3,6
 234:	00ce1e13          	slli	t3,t3,0xc
 238:	01c323b3          	slt	t2,t1,t3
 23c:	00039863          	bnez	t2,24c <tiend>
 240:	00a00e13          	li	t3,10
 244:	00ce1e13          	slli	t3,t3,0xc
 248:	01c282b3          	add	t0,t0,t3

0000024c <tiend>:
 24c:	00552023          	sw	t0,0(a0)
 250:	00008067          	ret

00000254 <time2string>:
 254:	ff410113          	addi	sp,sp,-12
 258:	00112423          	sw	ra,8(sp)
 25c:	00812223          	sw	s0,4(sp)
 260:	00912023          	sw	s1,0(sp)
 264:	00050413          	mv	s0,a0
 268:	00058493          	mv	s1,a1
 26c:	00c4d513          	srli	a0,s1,0xc
 270:	050000ef          	jal	2c0 <hexasc>
 274:	00a40023          	sb	a0,0(s0)
 278:	0084d513          	srli	a0,s1,0x8
 27c:	044000ef          	jal	2c0 <hexasc>
 280:	00a400a3          	sb	a0,1(s0)
 284:	03a00293          	li	t0,58
 288:	00540123          	sb	t0,2(s0)
 28c:	0044d513          	srli	a0,s1,0x4
 290:	030000ef          	jal	2c0 <hexasc>
 294:	00a401a3          	sb	a0,3(s0)
 298:	00048513          	mv	a0,s1
 29c:	024000ef          	jal	2c0 <hexasc>
 2a0:	00a40223          	sb	a0,4(s0)
 2a4:	00000293          	li	t0,0
 2a8:	005402a3          	sb	t0,5(s0)
 2ac:	00012483          	lw	s1,0(sp)
 2b0:	00412403          	lw	s0,4(sp)
 2b4:	00812083          	lw	ra,8(sp)
 2b8:	00c10113          	addi	sp,sp,12
 2bc:	00008067          	ret

000002c0 <hexasc>:
 2c0:	00f57513          	andi	a0,a0,15
 2c4:	00a00293          	li	t0,10
 2c8:	00555663          	bge	a0,t0,2d4 <letters>
 2cc:	03050513          	addi	a0,a0,48
 2d0:	00008067          	ret

000002d4 <letters>:
 2d4:	03750513          	addi	a0,a0,55
 2d8:	00008067          	ret

000002dc <delay>:
 2dc:	02a05063          	blez	a0,2fc <exit_delay>

000002e0 <while_loop>:
 2e0:	00001337          	lui	t1,0x1
 2e4:	bb830313          	addi	t1,t1,-1096 # bb8 <welcome_msg+0x64>
 2e8:	00000293          	li	t0,0

000002ec <for_loop>:
 2ec:	00128293          	addi	t0,t0,1
 2f0:	fe62cee3          	blt	t0,t1,2ec <for_loop>
 2f4:	fff50513          	addi	a0,a0,-1
 2f8:	fea044e3          	bgtz	a0,2e0 <while_loop>

000002fc <exit_delay>:
 2fc:	00008067          	ret

00000300 <set_timer_display>:
 300:	fe010113          	addi	sp,sp,-32
 304:	00812c23          	sw	s0,24(sp)
 308:	00a00413          	li	s0,10
 30c:	01212823          	sw	s2,16(sp)
 310:	00058913          	mv	s2,a1
 314:	028665b3          	rem	a1,a2,s0
 318:	00912a23          	sw	s1,20(sp)
 31c:	00050493          	mv	s1,a0
 320:	00000513          	li	a0,0
 324:	00112e23          	sw	ra,28(sp)
 328:	01312623          	sw	s3,12(sp)
 32c:	00060993          	mv	s3,a2
 330:	144000ef          	jal	474 <set_display>
 334:	0289c5b3          	div	a1,s3,s0
 338:	00100513          	li	a0,1
 33c:	0285e5b3          	rem	a1,a1,s0
 340:	134000ef          	jal	474 <set_display>
 344:	028965b3          	rem	a1,s2,s0
 348:	00200513          	li	a0,2
 34c:	128000ef          	jal	474 <set_display>
 350:	028945b3          	div	a1,s2,s0
 354:	00300513          	li	a0,3
 358:	0285e5b3          	rem	a1,a1,s0
 35c:	118000ef          	jal	474 <set_display>
 360:	0284e5b3          	rem	a1,s1,s0
 364:	00400513          	li	a0,4
 368:	10c000ef          	jal	474 <set_display>
 36c:	0284c5b3          	div	a1,s1,s0
 370:	01c12083          	lw	ra,28(sp)
 374:	01412483          	lw	s1,20(sp)
 378:	01012903          	lw	s2,16(sp)
 37c:	00c12983          	lw	s3,12(sp)
 380:	00500513          	li	a0,5
 384:	0285e5b3          	rem	a1,a1,s0
 388:	01812403          	lw	s0,24(sp)
 38c:	02010113          	addi	sp,sp,32
 390:	0e40006f          	j	474 <set_display>

00000394 <set_mytime_display>:
 394:	ff010113          	addi	sp,sp,-16
 398:	00812423          	sw	s0,8(sp)
 39c:	00f57593          	andi	a1,a0,15
 3a0:	00050413          	mv	s0,a0
 3a4:	00000513          	li	a0,0
 3a8:	00112623          	sw	ra,12(sp)
 3ac:	0c8000ef          	jal	474 <set_display>
 3b0:	40445593          	srai	a1,s0,0x4
 3b4:	00f5f593          	andi	a1,a1,15
 3b8:	00100513          	li	a0,1
 3bc:	0b8000ef          	jal	474 <set_display>
 3c0:	40845593          	srai	a1,s0,0x8
 3c4:	00f5f593          	andi	a1,a1,15
 3c8:	00200513          	li	a0,2
 3cc:	0a8000ef          	jal	474 <set_display>
 3d0:	40c45593          	srai	a1,s0,0xc
 3d4:	00f5f593          	andi	a1,a1,15
 3d8:	00300513          	li	a0,3
 3dc:	098000ef          	jal	474 <set_display>
 3e0:	01000593          	li	a1,16
 3e4:	00400513          	li	a0,4
 3e8:	08c000ef          	jal	474 <set_display>
 3ec:	00812403          	lw	s0,8(sp)
 3f0:	00c12083          	lw	ra,12(sp)
 3f4:	01000593          	li	a1,16
 3f8:	00500513          	li	a0,5
 3fc:	01010113          	addi	sp,sp,16
 400:	0740006f          	j	474 <set_display>

00000404 <sw_btn_test>:
 404:	ff010113          	addi	sp,sp,-16
 408:	00912223          	sw	s1,4(sp)
 40c:	00112623          	sw	ra,12(sp)
 410:	00812423          	sw	s0,8(sp)
 414:	00100493          	li	s1,1
 418:	0180006f          	j	430 <sw_btn_test+0x2c>
 41c:	20046513          	ori	a0,s0,512
 420:	028000ef          	jal	448 <set_leds>
 424:	00f47593          	andi	a1,s0,15
 428:	00000513          	li	a0,0
 42c:	048000ef          	jal	474 <set_display>
 430:	034000ef          	jal	464 <get_sw>
 434:	00050413          	mv	s0,a0
 438:	01c000ef          	jal	454 <get_btn>
 43c:	fe9500e3          	beq	a0,s1,41c <sw_btn_test+0x18>
 440:	00040513          	mv	a0,s0
 444:	fddff06f          	j	420 <sw_btn_test+0x1c>

00000448 <set_leds>:
 448:	040007b7          	lui	a5,0x4000
 44c:	00a7a023          	sw	a0,0(a5) # 4000000 <_stack_end+0x3eff2c4>
 450:	00008067          	ret

00000454 <get_btn>:
 454:	040007b7          	lui	a5,0x4000
 458:	0d07a503          	lw	a0,208(a5) # 40000d0 <_stack_end+0x3eff394>
 45c:	00157513          	andi	a0,a0,1
 460:	00008067          	ret

00000464 <get_sw>:
 464:	040007b7          	lui	a5,0x4000
 468:	0107a503          	lw	a0,16(a5) # 4000010 <_stack_end+0x3eff2d4>
 46c:	3ff57513          	andi	a0,a0,1023
 470:	00008067          	ret

00000474 <set_display>:
 474:	00900793          	li	a5,9
 478:	04000713          	li	a4,64
 47c:	00b7ec63          	bltu	a5,a1,494 <set_display+0x20>
 480:	000017b7          	lui	a5,0x1
 484:	00259593          	slli	a1,a1,0x2
 488:	c5078793          	addi	a5,a5,-944 # c50 <sev_seg_map.0>
 48c:	00b787b3          	add	a5,a5,a1
 490:	0007a703          	lw	a4,0(a5)
 494:	004007b7          	lui	a5,0x400
 498:	00578793          	addi	a5,a5,5 # 400005 <_stack_end+0x2ff2c9>
 49c:	00f50533          	add	a0,a0,a5
 4a0:	00451513          	slli	a0,a0,0x4
 4a4:	00e52023          	sw	a4,0(a0)
 4a8:	00008067          	ret

000004ac <printc>:
 4ac:	04000737          	lui	a4,0x4000
 4b0:	04470713          	addi	a4,a4,68 # 4000044 <_stack_end+0x3eff308>
 4b4:	000106b7          	lui	a3,0x10
 4b8:	00072783          	lw	a5,0(a4)
 4bc:	fed7eee3          	bltu	a5,a3,4b8 <printc+0xc>
 4c0:	040007b7          	lui	a5,0x4000
 4c4:	04a7a023          	sw	a0,64(a5) # 4000040 <_stack_end+0x3eff304>
 4c8:	00008067          	ret

000004cc <print>:
 4cc:	00054603          	lbu	a2,0(a0)
 4d0:	02060863          	beqz	a2,500 <print+0x34>
 4d4:	04000737          	lui	a4,0x4000
 4d8:	040005b7          	lui	a1,0x4000
 4dc:	04470713          	addi	a4,a4,68 # 4000044 <_stack_end+0x3eff308>
 4e0:	000106b7          	lui	a3,0x10
 4e4:	04058593          	addi	a1,a1,64 # 4000040 <_stack_end+0x3eff304>
 4e8:	00072783          	lw	a5,0(a4)
 4ec:	fed7eee3          	bltu	a5,a3,4e8 <print+0x1c>
 4f0:	00c5a023          	sw	a2,0(a1)
 4f4:	00154603          	lbu	a2,1(a0)
 4f8:	00150513          	addi	a0,a0,1
 4fc:	fe0616e3          	bnez	a2,4e8 <print+0x1c>
 500:	00008067          	ret

00000504 <print_dec>:
 504:	3b9ad737          	lui	a4,0x3b9ad
 508:	040006b7          	lui	a3,0x4000
 50c:	04000337          	lui	t1,0x4000
 510:	00a00593          	li	a1,10
 514:	00000793          	li	a5,0
 518:	a0070713          	addi	a4,a4,-1536 # 3b9aca00 <_stack_end+0x3b8abcc4>
 51c:	04468693          	addi	a3,a3,68 # 4000044 <_stack_end+0x3eff308>
 520:	00010637          	lui	a2,0x10
 524:	04030313          	addi	t1,t1,64 # 4000040 <_stack_end+0x3eff304>
 528:	00a00893          	li	a7,10
 52c:	04e57063          	bgeu	a0,a4,56c <print_dec+0x68>
 530:	02079e63          	bnez	a5,56c <print_dec+0x68>
 534:	fff58593          	addi	a1,a1,-1
 538:	02e57533          	remu	a0,a0,a4
 53c:	03175733          	divu	a4,a4,a7
 540:	fe0596e3          	bnez	a1,52c <print_dec+0x28>
 544:	02079263          	bnez	a5,568 <print_dec+0x64>
 548:	04000737          	lui	a4,0x4000
 54c:	04470713          	addi	a4,a4,68 # 4000044 <_stack_end+0x3eff308>
 550:	000106b7          	lui	a3,0x10
 554:	00072783          	lw	a5,0(a4)
 558:	fed7eee3          	bltu	a5,a3,554 <print_dec+0x50>
 55c:	040007b7          	lui	a5,0x4000
 560:	03000713          	li	a4,48
 564:	04e7a023          	sw	a4,64(a5) # 4000040 <_stack_end+0x3eff304>
 568:	00008067          	ret
 56c:	02e55833          	divu	a6,a0,a4
 570:	03080813          	addi	a6,a6,48
 574:	0ff87813          	zext.b	a6,a6
 578:	0006a783          	lw	a5,0(a3) # 10000 <__global_pointer+0xebcf>
 57c:	fec7eee3          	bltu	a5,a2,578 <print_dec+0x74>
 580:	01032023          	sw	a6,0(t1)
 584:	00100793          	li	a5,1
 588:	fadff06f          	j	534 <print_dec+0x30>

0000058c <print_hex32>:
 58c:	04000737          	lui	a4,0x4000
 590:	04470713          	addi	a4,a4,68 # 4000044 <_stack_end+0x3eff308>
 594:	000106b7          	lui	a3,0x10
 598:	00072783          	lw	a5,0(a4)
 59c:	fed7eee3          	bltu	a5,a3,598 <print_hex32+0xc>
 5a0:	03000693          	li	a3,48
 5a4:	040007b7          	lui	a5,0x4000
 5a8:	04000737          	lui	a4,0x4000
 5ac:	04d7a023          	sw	a3,64(a5) # 4000040 <_stack_end+0x3eff304>
 5b0:	04470713          	addi	a4,a4,68 # 4000044 <_stack_end+0x3eff308>
 5b4:	000106b7          	lui	a3,0x10
 5b8:	00072783          	lw	a5,0(a4)
 5bc:	fed7eee3          	bltu	a5,a3,5b8 <print_hex32+0x2c>
 5c0:	04000837          	lui	a6,0x4000
 5c4:	04080813          	addi	a6,a6,64 # 4000040 <_stack_end+0x3eff304>
 5c8:	04000737          	lui	a4,0x4000
 5cc:	07800793          	li	a5,120
 5d0:	00f82023          	sw	a5,0(a6)
 5d4:	01c00613          	li	a2,28
 5d8:	00900313          	li	t1,9
 5dc:	04470713          	addi	a4,a4,68 # 4000044 <_stack_end+0x3eff308>
 5e0:	000106b7          	lui	a3,0x10
 5e4:	ffc00893          	li	a7,-4
 5e8:	00c557b3          	srl	a5,a0,a2
 5ec:	00f7f793          	andi	a5,a5,15
 5f0:	03778593          	addi	a1,a5,55
 5f4:	00f36463          	bltu	t1,a5,5fc <print_hex32+0x70>
 5f8:	03078593          	addi	a1,a5,48
 5fc:	00072783          	lw	a5,0(a4)
 600:	fed7eee3          	bltu	a5,a3,5fc <print_hex32+0x70>
 604:	00b82023          	sw	a1,0(a6)
 608:	ffc60613          	addi	a2,a2,-4 # fffc <__global_pointer+0xebcb>
 60c:	fd161ee3          	bne	a2,a7,5e8 <print_hex32+0x5c>
 610:	00008067          	ret

00000614 <handle_exception>:
 614:	00200793          	li	a5,2
 618:	18f80863          	beq	a6,a5,7a8 <handle_exception+0x194>
 61c:	00b00793          	li	a5,11
 620:	12f80063          	beq	a6,a5,740 <handle_exception+0x12c>
 624:	04000737          	lui	a4,0x4000
 628:	14081463          	bnez	a6,770 <handle_exception+0x15c>
 62c:	04000837          	lui	a6,0x4000
 630:	00001637          	lui	a2,0x1
 634:	c7860613          	addi	a2,a2,-904 # c78 <sev_seg_map.0+0x28>
 638:	00a00593          	li	a1,10
 63c:	04470713          	addi	a4,a4,68 # 4000044 <_stack_end+0x3eff308>
 640:	000106b7          	lui	a3,0x10
 644:	04080813          	addi	a6,a6,64 # 4000040 <_stack_end+0x3eff304>
 648:	00072783          	lw	a5,0(a4)
 64c:	fed7eee3          	bltu	a5,a3,648 <handle_exception+0x34>
 650:	00b82023          	sw	a1,0(a6)
 654:	00164583          	lbu	a1,1(a2)
 658:	00160613          	addi	a2,a2,1
 65c:	fe0596e3          	bnez	a1,648 <handle_exception+0x34>
 660:	04000737          	lui	a4,0x4000
 664:	04000837          	lui	a6,0x4000
 668:	00001637          	lui	a2,0x1
 66c:	cf060613          	addi	a2,a2,-784 # cf0 <sev_seg_map.0+0xa0>
 670:	04500593          	li	a1,69
 674:	04470713          	addi	a4,a4,68 # 4000044 <_stack_end+0x3eff308>
 678:	000106b7          	lui	a3,0x10
 67c:	04080813          	addi	a6,a6,64 # 4000040 <_stack_end+0x3eff304>
 680:	00072783          	lw	a5,0(a4)
 684:	fed7eee3          	bltu	a5,a3,680 <handle_exception+0x6c>
 688:	00b82023          	sw	a1,0(a6)
 68c:	00164583          	lbu	a1,1(a2)
 690:	00160613          	addi	a2,a2,1
 694:	fe0596e3          	bnez	a1,680 <handle_exception+0x6c>
 698:	04000737          	lui	a4,0x4000
 69c:	04470713          	addi	a4,a4,68 # 4000044 <_stack_end+0x3eff308>
 6a0:	000106b7          	lui	a3,0x10
 6a4:	00072783          	lw	a5,0(a4)
 6a8:	fed7eee3          	bltu	a5,a3,6a4 <handle_exception+0x90>
 6ac:	03000693          	li	a3,48
 6b0:	040007b7          	lui	a5,0x4000
 6b4:	04000737          	lui	a4,0x4000
 6b8:	04d7a023          	sw	a3,64(a5) # 4000040 <_stack_end+0x3eff304>
 6bc:	04470713          	addi	a4,a4,68 # 4000044 <_stack_end+0x3eff308>
 6c0:	000106b7          	lui	a3,0x10
 6c4:	00072783          	lw	a5,0(a4)
 6c8:	fed7eee3          	bltu	a5,a3,6c4 <handle_exception+0xb0>
 6cc:	04000837          	lui	a6,0x4000
 6d0:	04080813          	addi	a6,a6,64 # 4000040 <_stack_end+0x3eff304>
 6d4:	04000737          	lui	a4,0x4000
 6d8:	07800793          	li	a5,120
 6dc:	00f82023          	sw	a5,0(a6)
 6e0:	01c00613          	li	a2,28
 6e4:	00900313          	li	t1,9
 6e8:	04470713          	addi	a4,a4,68 # 4000044 <_stack_end+0x3eff308>
 6ec:	000106b7          	lui	a3,0x10
 6f0:	ffc00893          	li	a7,-4
 6f4:	00c557b3          	srl	a5,a0,a2
 6f8:	00f7f793          	andi	a5,a5,15
 6fc:	03778593          	addi	a1,a5,55
 700:	00f36463          	bltu	t1,a5,708 <handle_exception+0xf4>
 704:	03078593          	addi	a1,a5,48
 708:	00072783          	lw	a5,0(a4)
 70c:	fed7eee3          	bltu	a5,a3,708 <handle_exception+0xf4>
 710:	00b82023          	sw	a1,0(a6)
 714:	ffc60613          	addi	a2,a2,-4
 718:	fd161ee3          	bne	a2,a7,6f4 <handle_exception+0xe0>
 71c:	04000737          	lui	a4,0x4000
 720:	04470713          	addi	a4,a4,68 # 4000044 <_stack_end+0x3eff308>
 724:	000106b7          	lui	a3,0x10
 728:	00072783          	lw	a5,0(a4)
 72c:	fed7eee3          	bltu	a5,a3,728 <handle_exception+0x114>
 730:	040007b7          	lui	a5,0x4000
 734:	00a00713          	li	a4,10
 738:	04e7a023          	sw	a4,64(a5) # 4000040 <_stack_end+0x3eff304>
 73c:	0000006f          	j	73c <handle_exception+0x128>
 740:	00400793          	li	a5,4
 744:	0af88063          	beq	a7,a5,7e4 <handle_exception+0x1d0>
 748:	0d089a63          	bne	a7,a6,81c <__heap_size+0x1c>
 74c:	04000737          	lui	a4,0x4000
 750:	04470713          	addi	a4,a4,68 # 4000044 <_stack_end+0x3eff308>
 754:	000106b7          	lui	a3,0x10
 758:	00072783          	lw	a5,0(a4)
 75c:	fed7eee3          	bltu	a5,a3,758 <handle_exception+0x144>
 760:	040007b7          	lui	a5,0x4000
 764:	0ff57513          	zext.b	a0,a0
 768:	04a7a023          	sw	a0,64(a5) # 4000040 <_stack_end+0x3eff304>
 76c:	00008067          	ret
 770:	04000837          	lui	a6,0x4000
 774:	00001637          	lui	a2,0x1
 778:	cd060613          	addi	a2,a2,-816 # cd0 <sev_seg_map.0+0x80>
 77c:	00a00593          	li	a1,10
 780:	04470713          	addi	a4,a4,68
 784:	000106b7          	lui	a3,0x10
 788:	04080813          	addi	a6,a6,64 # 4000040 <_stack_end+0x3eff304>
 78c:	00072783          	lw	a5,0(a4)
 790:	fed7eee3          	bltu	a5,a3,78c <handle_exception+0x178>
 794:	00b82023          	sw	a1,0(a6)
 798:	00164583          	lbu	a1,1(a2)
 79c:	00160613          	addi	a2,a2,1
 7a0:	fe0596e3          	bnez	a1,78c <handle_exception+0x178>
 7a4:	ebdff06f          	j	660 <handle_exception+0x4c>
 7a8:	04000737          	lui	a4,0x4000
 7ac:	04000837          	lui	a6,0x4000
 7b0:	00001637          	lui	a2,0x1
 7b4:	ca860613          	addi	a2,a2,-856 # ca8 <sev_seg_map.0+0x58>
 7b8:	00a00593          	li	a1,10
 7bc:	04470713          	addi	a4,a4,68 # 4000044 <_stack_end+0x3eff308>
 7c0:	000106b7          	lui	a3,0x10
 7c4:	04080813          	addi	a6,a6,64 # 4000040 <_stack_end+0x3eff304>
 7c8:	00072783          	lw	a5,0(a4)
 7cc:	fed7eee3          	bltu	a5,a3,7c8 <handle_exception+0x1b4>
 7d0:	00b82023          	sw	a1,0(a6)
 7d4:	00164583          	lbu	a1,1(a2)
 7d8:	00160613          	addi	a2,a2,1
 7dc:	fe0596e3          	bnez	a1,7c8 <handle_exception+0x1b4>
 7e0:	e81ff06f          	j	660 <handle_exception+0x4c>
 7e4:	00054603          	lbu	a2,0(a0)
 7e8:	02060a63          	beqz	a2,81c <__heap_size+0x1c>
 7ec:	04000737          	lui	a4,0x4000
 7f0:	040005b7          	lui	a1,0x4000
 7f4:	04470713          	addi	a4,a4,68 # 4000044 <_stack_end+0x3eff308>
 7f8:	000106b7          	lui	a3,0x10
 7fc:	04058593          	addi	a1,a1,64 # 4000040 <_stack_end+0x3eff304>
 800:	00072783          	lw	a5,0(a4)
 804:	fed7eee3          	bltu	a5,a3,800 <__heap_size>
 808:	00c5a023          	sw	a2,0(a1)
 80c:	00154603          	lbu	a2,1(a0)
 810:	00150513          	addi	a0,a0,1
 814:	fe0616e3          	bnez	a2,800 <__heap_size>
 818:	00008067          	ret
 81c:	00008067          	ret

00000820 <nextprime>:
 820:	00200713          	li	a4,2
 824:	00050793          	mv	a5,a0
 828:	02a74063          	blt	a4,a0,848 <nextprime+0x28>
 82c:	00100513          	li	a0,1
 830:	00f05a63          	blez	a5,844 <nextprime+0x24>
 834:	fff78793          	addi	a5,a5,-1
 838:	00f037b3          	snez	a5,a5
 83c:	00278513          	addi	a0,a5,2
 840:	00008067          	ret
 844:	00008067          	ret
 848:	00150793          	addi	a5,a0,1
 84c:	0017e513          	ori	a0,a5,1
 850:	00300613          	li	a2,3
 854:	02c567b3          	rem	a5,a0,a2
 858:	40155693          	srai	a3,a0,0x1
 85c:	02078263          	beqz	a5,880 <nextprime+0x60>
 860:	00268693          	addi	a3,a3,2 # 10002 <__global_pointer+0xebd1>
 864:	00300793          	li	a5,3
 868:	00c0006f          	j	874 <nextprime+0x54>
 86c:	02f56733          	rem	a4,a0,a5
 870:	00070863          	beqz	a4,880 <nextprime+0x60>
 874:	00178793          	addi	a5,a5,1
 878:	fef69ae3          	bne	a3,a5,86c <nextprime+0x4c>
 87c:	00008067          	ret
 880:	00250513          	addi	a0,a0,2
 884:	fd1ff06f          	j	854 <nextprime+0x34>

00000888 <run_start_sequence>:
 888:	fe010113          	addi	sp,sp,-32
 88c:	00812c23          	sw	s0,24(sp)
 890:	00000513          	li	a0,0
 894:	04000437          	lui	s0,0x4000
 898:	00912a23          	sw	s1,20(sp)
 89c:	01212823          	sw	s2,16(sp)
 8a0:	01312623          	sw	s3,12(sp)
 8a4:	01412423          	sw	s4,8(sp)
 8a8:	00112e23          	sw	ra,28(sp)
 8ac:	00000913          	li	s2,0
 8b0:	b99ff0ef          	jal	448 <set_leds>
 8b4:	00001a37          	lui	s4,0x1
 8b8:	000019b7          	lui	s3,0x1
 8bc:	02040413          	addi	s0,s0,32 # 4000020 <_stack_end+0x3eff2e4>
 8c0:	00100493          	li	s1,1
 8c4:	00a00713          	li	a4,10
 8c8:	00042783          	lw	a5,0(s0)
 8cc:	0017f793          	andi	a5,a5,1
 8d0:	fe078ce3          	beqz	a5,8c8 <run_start_sequence+0x40>
 8d4:	00942023          	sw	s1,0(s0)
 8d8:	fff70713          	addi	a4,a4,-1
 8dc:	fe0716e3          	bnez	a4,8c8 <run_start_sequence+0x40>
 8e0:	c34a2583          	lw	a1,-972(s4) # c34 <mytime>
 8e4:	c0c98513          	addi	a0,s3,-1012 # c0c <textstring>
 8e8:	96dff0ef          	jal	254 <time2string>
 8ec:	c0c98513          	addi	a0,s3,-1012
 8f0:	895ff0ef          	jal	184 <display_string>
 8f4:	00090513          	mv	a0,s2
 8f8:	b51ff0ef          	jal	448 <set_leds>
 8fc:	c34a0513          	addi	a0,s4,-972
 900:	8ddff0ef          	jal	1dc <tick>
 904:	00190913          	addi	s2,s2,1
 908:	01000793          	li	a5,16
 90c:	faf91ce3          	bne	s2,a5,8c4 <run_start_sequence+0x3c>
 910:	01c12083          	lw	ra,28(sp)
 914:	01812403          	lw	s0,24(sp)
 918:	01412483          	lw	s1,20(sp)
 91c:	01012903          	lw	s2,16(sp)
 920:	00c12983          	lw	s3,12(sp)
 924:	00812a03          	lw	s4,8(sp)
 928:	02010113          	addi	sp,sp,32
 92c:	00008067          	ret

00000930 <handle_interrupt>:
 930:	ff010113          	addi	sp,sp,-16
 934:	00112623          	sw	ra,12(sp)
 938:	00812423          	sw	s0,8(sp)
 93c:	01100793          	li	a5,17
 940:	10f50863          	beq	a0,a5,a50 <handle_interrupt+0x120>
 944:	040007b7          	lui	a5,0x4000
 948:	0207a023          	sw	zero,32(a5) # 4000020 <_stack_end+0x3eff2e4>
 94c:	00001437          	lui	s0,0x1
 950:	c4c42503          	lw	a0,-948(s0) # c4c <timeoutcount>
 954:	af5ff0ef          	jal	448 <set_leds>
 958:	c4c42783          	lw	a5,-948(s0)
 95c:	00900713          	li	a4,9
 960:	00178793          	addi	a5,a5,1
 964:	00f74c63          	blt	a4,a5,97c <handle_interrupt+0x4c>
 968:	00c12083          	lw	ra,12(sp)
 96c:	c4f42623          	sw	a5,-948(s0)
 970:	00812403          	lw	s0,8(sp)
 974:	01010113          	addi	sp,sp,16
 978:	00008067          	ret
 97c:	00912223          	sw	s1,4(sp)
 980:	000014b7          	lui	s1,0x1
 984:	c3c4a783          	lw	a5,-964(s1) # c3c <display_mode>
 988:	c4042623          	sw	zero,-948(s0)
 98c:	06079e63          	bnez	a5,a08 <handle_interrupt+0xd8>
 990:	000017b7          	lui	a5,0x1
 994:	c407a603          	lw	a2,-960(a5) # c40 <seconds>
 998:	00001737          	lui	a4,0x1
 99c:	03b00693          	li	a3,59
 9a0:	00160613          	addi	a2,a2,1
 9a4:	c4c7a023          	sw	a2,-960(a5)
 9a8:	c4472583          	lw	a1,-956(a4) # c44 <minutes>
 9ac:	00c6da63          	bge	a3,a2,9c0 <handle_interrupt+0x90>
 9b0:	00158593          	addi	a1,a1,1
 9b4:	c407a023          	sw	zero,-960(a5)
 9b8:	c4b72223          	sw	a1,-956(a4)
 9bc:	00000613          	li	a2,0
 9c0:	000017b7          	lui	a5,0x1
 9c4:	03b00693          	li	a3,59
 9c8:	c487a503          	lw	a0,-952(a5) # c48 <hours>
 9cc:	00b6da63          	bge	a3,a1,9e0 <handle_interrupt+0xb0>
 9d0:	00150513          	addi	a0,a0,1
 9d4:	c4072223          	sw	zero,-956(a4)
 9d8:	c4a7a423          	sw	a0,-952(a5)
 9dc:	00000593          	li	a1,0
 9e0:	01700713          	li	a4,23
 9e4:	0aa74663          	blt	a4,a0,a90 <handle_interrupt+0x160>
 9e8:	00001437          	lui	s0,0x1
 9ec:	915ff0ef          	jal	300 <set_timer_display>
 9f0:	c3440513          	addi	a0,s0,-972 # c34 <mytime>
 9f4:	00812403          	lw	s0,8(sp)
 9f8:	00412483          	lw	s1,4(sp)
 9fc:	00c12083          	lw	ra,12(sp)
 a00:	01010113          	addi	sp,sp,16
 a04:	fd8ff06f          	j	1dc <tick>
 a08:	00001437          	lui	s0,0x1
 a0c:	c3440513          	addi	a0,s0,-972 # c34 <mytime>
 a10:	fccff0ef          	jal	1dc <tick>
 a14:	c3440513          	addi	a0,s0,-972
 a18:	fc4ff0ef          	jal	1dc <tick>
 a1c:	c3440513          	addi	a0,s0,-972
 a20:	fbcff0ef          	jal	1dc <tick>
 a24:	c3442503          	lw	a0,-972(s0)
 a28:	96dff0ef          	jal	394 <set_mytime_display>
 a2c:	03200513          	li	a0,50
 a30:	8adff0ef          	jal	2dc <delay>
 a34:	c3c4a783          	lw	a5,-964(s1)
 a38:	06078c63          	beqz	a5,ab0 <handle_interrupt+0x180>
 a3c:	00c12083          	lw	ra,12(sp)
 a40:	00812403          	lw	s0,8(sp)
 a44:	00412483          	lw	s1,4(sp)
 a48:	01010113          	addi	sp,sp,16
 a4c:	00008067          	ret
 a50:	00001537          	lui	a0,0x1
 a54:	d0450513          	addi	a0,a0,-764 # d04 <sev_seg_map.0+0xb4>
 a58:	a75ff0ef          	jal	4cc <print>
 a5c:	040007b7          	lui	a5,0x4000
 a60:	0007ae23          	sw	zero,28(a5) # 400001c <_stack_end+0x3eff2e0>
 a64:	a01ff0ef          	jal	464 <get_sw>
 a68:	00457413          	andi	s0,a0,4
 a6c:	02041863          	bnez	s0,a9c <handle_interrupt+0x16c>
 a70:	00001537          	lui	a0,0x1
 a74:	d2450513          	addi	a0,a0,-732 # d24 <sev_seg_map.0+0xd4>
 a78:	a55ff0ef          	jal	4cc <print>
 a7c:	000017b7          	lui	a5,0x1
 a80:	1f400513          	li	a0,500
 a84:	c287ae23          	sw	s0,-964(a5) # c3c <display_mode>
 a88:	855ff0ef          	jal	2dc <delay>
 a8c:	eb9ff06f          	j	944 <handle_interrupt+0x14>
 a90:	c407a423          	sw	zero,-952(a5)
 a94:	00000513          	li	a0,0
 a98:	f51ff06f          	j	9e8 <handle_interrupt+0xb8>
 a9c:	00001537          	lui	a0,0x1
 aa0:	d1850513          	addi	a0,a0,-744 # d18 <sev_seg_map.0+0xc8>
 aa4:	a29ff0ef          	jal	4cc <print>
 aa8:	00100413          	li	s0,1
 aac:	fd1ff06f          	j	a7c <handle_interrupt+0x14c>
 ab0:	000017b7          	lui	a5,0x1
 ab4:	c487a503          	lw	a0,-952(a5) # c48 <hours>
 ab8:	000017b7          	lui	a5,0x1
 abc:	c447a583          	lw	a1,-956(a5) # c44 <minutes>
 ac0:	000017b7          	lui	a5,0x1
 ac4:	c407a603          	lw	a2,-960(a5) # c40 <seconds>
 ac8:	f25ff06f          	j	9ec <handle_interrupt+0xbc>

00000acc <main>:
 acc:	ff010113          	addi	sp,sp,-16
 ad0:	00812423          	sw	s0,8(sp)
 ad4:	00912223          	sw	s1,4(sp)
 ad8:	01212023          	sw	s2,0(sp)
 adc:	00112623          	sw	ra,12(sp)
 ae0:	00001937          	lui	s2,0x1
 ae4:	030000ef          	jal	b14 <labinit>
 ae8:	00001437          	lui	s0,0x1
 aec:	000014b7          	lui	s1,0x1
 af0:	d3090513          	addi	a0,s2,-720 # d30 <sev_seg_map.0+0xe0>
 af4:	9d9ff0ef          	jal	4cc <print>
 af8:	c3842503          	lw	a0,-968(s0) # c38 <prime>
 afc:	d25ff0ef          	jal	820 <nextprime>
 b00:	c2a42c23          	sw	a0,-968(s0)
 b04:	a01ff0ef          	jal	504 <print_dec>
 b08:	d3848513          	addi	a0,s1,-712 # d38 <sev_seg_map.0+0xe8>
 b0c:	9c1ff0ef          	jal	4cc <print>
 b10:	fe1ff06f          	j	af0 <main+0x24>

00000b14 <labinit>:
 b14:	0000c6b7          	lui	a3,0xc
 b18:	04000737          	lui	a4,0x4000
 b1c:	6c068693          	addi	a3,a3,1728 # c6c0 <__global_pointer+0xb28f>
 b20:	02d72423          	sw	a3,40(a4) # 4000028 <_stack_end+0x3eff2ec>
 b24:	040007b7          	lui	a5,0x4000
 b28:	02d00693          	li	a3,45
 b2c:	02d7a623          	sw	a3,44(a5) # 400002c <_stack_end+0x3eff2f0>
 b30:	04000737          	lui	a4,0x4000
 b34:	02072023          	sw	zero,32(a4) # 4000020 <_stack_end+0x3eff2e4>
 b38:	040006b7          	lui	a3,0x4000
 b3c:	00700613          	li	a2,7
 b40:	040007b7          	lui	a5,0x4000
 b44:	02c6a223          	sw	a2,36(a3) # 4000024 <_stack_end+0x3eff2e8>
 b48:	00400713          	li	a4,4
 b4c:	00e7ac23          	sw	a4,24(a5) # 4000018 <_stack_end+0x3eff2dc>
 b50:	e24ff06f          	j	174 <enable_interrupt>
